target datalayout = "e-m:e-p270:32:32-p271:32:32-p272:64:64-i64:64-i128:128-f80:128-n8:16:32:64-S128"
target triple = "x86_64-unknown-linux-gnu"

%"class.icu_75::UObject" = type { ptr }
%"class.icu_75::DateFormat" = type { %"class.icu_75::Format.base", ptr, ptr, %"class.icu_75::EnumSet", i32 }
%"class.icu_75::Format.base" = type <{ %"class.icu_75::UObject", [157 x i8], [157 x i8] }>
%"class.icu_75::EnumSet" = type { i32 }

; Function Attrs: mustprogress uwtable
define noundef zeroext i1 @_ZNK6icu_7510DateFormateqERKNS_6FormatE(ptr noundef nonnull align 8 dereferenceable(352) %this, ptr noundef nonnull align 8 dereferenceable(322) %other) unnamed_addr #2 align 2 {
entry:
  %retval = alloca i1, align 1
  %this.addr = alloca ptr, align 8
  %other.addr = alloca ptr, align 8
  %fmt = alloca ptr, align 8
  store ptr %this, ptr %this.addr, align 8
  store ptr %other, ptr %other.addr, align 8
  %this1 = load ptr, ptr %this.addr, align 8
  %0 = load ptr, ptr %other.addr, align 8
  %cmp = icmp eq ptr %this1, %0
  br i1 %cmp, label %if.then, label %if.end

if.then:                                          ; preds = %entry
  store i1 true, ptr %retval, align 1
  br label %return

if.end:                                           ; preds = %entry
  %1 = load ptr, ptr %other.addr, align 8
  %call = call noundef zeroext i1 @_ZNK6icu_756FormateqERKS0_(ptr noundef nonnull align 8 dereferenceable(322) %this1, ptr noundef nonnull align 8 dereferenceable(322) %1)
  br i1 %call, label %if.end3, label %if.then2

if.then2:                                         ; preds = %if.end
  store i1 false, ptr %retval, align 1
  br label %return

if.end3:                                          ; preds = %if.end
  %2 = load ptr, ptr %other.addr, align 8
  store ptr %2, ptr %fmt, align 8
  %fCalendar = getelementptr inbounds %"class.icu_75::DateFormat", ptr %this1, i32 0, i32 1
  %3 = load ptr, ptr %fCalendar, align 8
  %tobool = icmp ne ptr %3, null
  br i1 %tobool, label %land.lhs.true, label %land.end

land.lhs.true:                                    ; preds = %if.end3
  %fCalendar4 = getelementptr inbounds %"class.icu_75::DateFormat", ptr %this1, i32 0, i32 1
  %4 = load ptr, ptr %fCalendar4, align 8
  %5 = load ptr, ptr %fmt, align 8
  %fCalendar5 = getelementptr inbounds %"class.icu_75::DateFormat", ptr %5, i32 0, i32 1
  %6 = load ptr, ptr %fCalendar5, align 8
  %vtable = load ptr, ptr %4, align 8
  %vfn = getelementptr inbounds ptr, ptr %vtable, i64 5
  %7 = load ptr, ptr %vfn, align 8
  %call6 = call noundef signext i8 %7(ptr noundef nonnull align 8 dereferenceable(618) %4, ptr noundef nonnull align 8 dereferenceable(618) %6)
  %tobool7 = icmp ne i8 %call6, 0
  br i1 %tobool7, label %land.lhs.true8, label %land.end

land.lhs.true8:                                   ; preds = %land.lhs.true
  %fNumberFormat = getelementptr inbounds %"class.icu_75::DateFormat", ptr %this1, i32 0, i32 2
  %8 = load ptr, ptr %fNumberFormat, align 8
  %tobool9 = icmp ne ptr %8, null
  br i1 %tobool9, label %land.lhs.true10, label %land.end

land.lhs.true10:                                  ; preds = %land.lhs.true8
  %fNumberFormat11 = getelementptr inbounds %"class.icu_75::DateFormat", ptr %this1, i32 0, i32 2
  %9 = load ptr, ptr %fNumberFormat11, align 8
  %10 = load ptr, ptr %fmt, align 8
  %fNumberFormat12 = getelementptr inbounds %"class.icu_75::DateFormat", ptr %10, i32 0, i32 2
  %11 = load ptr, ptr %fNumberFormat12, align 8
  %vtable13 = load ptr, ptr %9, align 8
  %vfn14 = getelementptr inbounds ptr, ptr %vtable13, i64 3
  %12 = load ptr, ptr %vfn14, align 8
  %call15 = call noundef zeroext i1 %12(ptr noundef nonnull align 8 dereferenceable(356) %9, ptr noundef nonnull align 8 dereferenceable(322) %11)
  br i1 %call15, label %land.rhs, label %land.end

land.rhs:                                         ; preds = %land.lhs.true10
  %fCapitalizationContext = getelementptr inbounds %"class.icu_75::DateFormat", ptr %this1, i32 0, i32 4
  %13 = load i32, ptr %fCapitalizationContext, align 4
  %14 = load ptr, ptr %fmt, align 8
  %fCapitalizationContext16 = getelementptr inbounds %"class.icu_75::DateFormat", ptr %14, i32 0, i32 4
  %15 = load i32, ptr %fCapitalizationContext16, align 4
  %cmp17 = icmp eq i32 %13, %15
  br label %land.end

land.end:                                         ; preds = %land.rhs, %land.lhs.true10, %land.lhs.true8, %land.lhs.true, %if.end3
  %16 = phi i1 [ false, %land.lhs.true10 ], [ false, %land.lhs.true8 ], [ false, %land.lhs.true ], [ false, %if.end3 ], [ %cmp17, %land.rhs ]
  store i1 %16, ptr %retval, align 1
  br label %return

return:                                           ; preds = %land.end, %if.then2, %if.then
  %17 = load i1, ptr %retval, align 1
  ret i1 %17
}