; Function Attrs: mustprogress uwtable
define noundef zeroext i1 @_ZNK6icu_7510DateFormateqERKNS_6FormatE(ptr noundef nonnull align 8 dereferenceable(352) %this, ptr noundef nonnull align 8 dereferenceable(322) %other) unnamed_addr #3 align 2 {
entry:
  %cmp = icmp eq ptr %this, %other
  br i1 %cmp, label %return, label %if.end

if.end:                                           ; preds = %entry
  %call = tail call noundef zeroext i1 @_ZNK6icu_756FormateqERKS0_(ptr noundef nonnull align 8 dereferenceable(322) %this, ptr noundef nonnull align 8 dereferenceable(322) %other)
  br i1 %call, label %if.end3, label %return

if.end3:                                          ; preds = %if.end
  %fCalendar = getelementptr inbounds i8, ptr %this, i64 328
  %0 = load ptr, ptr %fCalendar, align 8
  %tobool.not = icmp eq ptr %0, null
  br i1 %tobool.not, label %return, label %land.lhs.true

land.lhs.true:                                    ; preds = %if.end3
  %fCalendar5 = getelementptr inbounds i8, ptr %other, i64 328
  %1 = load ptr, ptr %fCalendar5, align 8
  %vtable = load ptr, ptr %0, align 8
  %vfn = getelementptr inbounds i8, ptr %vtable, i64 40
  %2 = load ptr, ptr %vfn, align 8
  %call6 = tail call noundef signext i8 %2(ptr noundef nonnull align 8 dereferenceable(618) %0, ptr noundef nonnull align 8 dereferenceable(618) %1)
  %tobool7.not = icmp eq i8 %call6, 0
  br i1 %tobool7.not, label %return, label %land.lhs.true8

land.lhs.true8:                                   ; preds = %land.lhs.true
  %fNumberFormat = getelementptr inbounds i8, ptr %this, i64 336
  %3 = load ptr, ptr %fNumberFormat, align 8
  %tobool9.not = icmp eq ptr %3, null
  br i1 %tobool9.not, label %return, label %land.lhs.true10

land.lhs.true10:                                  ; preds = %land.lhs.true8
  %fNumberFormat12 = getelementptr inbounds i8, ptr %other, i64 336
  %4 = load ptr, ptr %fNumberFormat12, align 8
  %vtable13 = load ptr, ptr %3, align 8
  %vfn14 = getelementptr inbounds i8, ptr %vtable13, i64 24
  %5 = load ptr, ptr %vfn14, align 8
  %call15 = tail call noundef zeroext i1 %5(ptr noundef nonnull align 8 dereferenceable(356) %3, ptr noundef nonnull align 8 dereferenceable(322) %4)
  br i1 %call15, label %land.rhs, label %return

land.rhs:                                         ; preds = %land.lhs.true10
  %fCapitalizationContext = getelementptr inbounds i8, ptr %this, i64 348
  %6 = load i32, ptr %fCapitalizationContext, align 4
  %fCapitalizationContext16 = getelementptr inbounds i8, ptr %other, i64 348
  %7 = load i32, ptr %fCapitalizationContext16, align 4
  %cmp17 = icmp eq i32 %6, %7
  br label %return

return:                                           ; preds = %if.end3, %land.lhs.true, %land.lhs.true8, %land.lhs.true10, %land.rhs, %if.end, %entry
  %retval.0 = phi i1 [ true, %entry ], [ false, %if.end ], [ false, %land.lhs.true10 ], [ false, %land.lhs.true8 ], [ false, %land.lhs.true ], [ false, %if.end3 ], [ %cmp17, %land.rhs ]
  ret i1 %retval.0
}